; Function Attrs: nounwind uwtable
define internal ptr @zlib_Decompress___deepcopy__(ptr noundef %0, ptr noundef %1, ptr noundef %2, i64 noundef %3, ptr noundef %4) #0 {
  %6 = alloca [1 x ptr], align 8
  call void @llvm.lifetime.start.p0(i64 8, ptr nonnull %6) #7
  %7 = icmp eq ptr %4, null
  %8 = icmp eq i64 %3, 1
  %or.cond3 = and i1 %8, %7
  %9 = icmp ne ptr %2, null
  %or.cond5 = and i1 %9, %or.cond3
  br i1 %or.cond5, label %.thread, label %10

10:                                               ; preds = %5
  %11 = call ptr @_PyArg_UnpackKeywords(ptr noundef %2, i64 noundef %3, ptr noundef null, ptr noundef %4, ptr noundef nonnull @zlib_Decompress___deepcopy__._parser, i32 noundef 1, i32 noundef 1, i32 noundef 0, i32 noundef 0, ptr noundef nonnull %6) #7
  %.not = icmp eq ptr %11, null
  br i1 %.not, label %13, label %.thread

.thread:                                          ; preds = %5, %10
  %12 = call fastcc ptr @zlib_Decompress_copy_impl(ptr noundef %0, ptr noundef %1)
  br label %13

13:                                               ; preds = %10, %.thread
  %.0 = phi ptr [ %12, %.thread ], [ null, %10 ]
  call void @llvm.lifetime.end.p0(i64 8, ptr nonnull %6) #7
  ret ptr %.0
}